
week3_1.elf:     file format elf32-avr

Sections:
Idx Name          Size      VMA       LMA       File off  Algn
  0 .text         00000084  00000000  00000000  00000054  2**1
                  CONTENTS, ALLOC, LOAD, READONLY, CODE

Disassembly of section .text:

00000000 <__vectors>:
   0:	19 c0       	rjmp	.+50     	; 0x34 <__ctors_end>
   2:	20 c0       	rjmp	.+64     	; 0x44 <__bad_interrupt>
   4:	1f c0       	rjmp	.+62     	; 0x44 <__bad_interrupt>
   6:	1e c0       	rjmp	.+60     	; 0x44 <__bad_interrupt>
   8:	1d c0       	rjmp	.+58     	; 0x44 <__bad_interrupt>
   a:	1c c0       	rjmp	.+56     	; 0x44 <__bad_interrupt>
   c:	1b c0       	rjmp	.+54     	; 0x44 <__bad_interrupt>
   e:	1a c0       	rjmp	.+52     	; 0x44 <__bad_interrupt>
  10:	19 c0       	rjmp	.+50     	; 0x44 <__bad_interrupt>
  12:	18 c0       	rjmp	.+48     	; 0x44 <__bad_interrupt>
  14:	17 c0       	rjmp	.+46     	; 0x44 <__bad_interrupt>
  16:	16 c0       	rjmp	.+44     	; 0x44 <__bad_interrupt>
  18:	15 c0       	rjmp	.+42     	; 0x44 <__bad_interrupt>
  1a:	14 c0       	rjmp	.+40     	; 0x44 <__bad_interrupt>
  1c:	13 c0       	rjmp	.+38     	; 0x44 <__bad_interrupt>
  1e:	12 c0       	rjmp	.+36     	; 0x44 <__bad_interrupt>
  20:	11 c0       	rjmp	.+34     	; 0x44 <__bad_interrupt>
  22:	10 c0       	rjmp	.+32     	; 0x44 <__bad_interrupt>
  24:	0f c0       	rjmp	.+30     	; 0x44 <__bad_interrupt>
  26:	0e c0       	rjmp	.+28     	; 0x44 <__bad_interrupt>
  28:	0d c0       	rjmp	.+26     	; 0x44 <__bad_interrupt>
  2a:	0c c0       	rjmp	.+24     	; 0x44 <__bad_interrupt>
  2c:	0b c0       	rjmp	.+22     	; 0x44 <__bad_interrupt>
  2e:	0a c0       	rjmp	.+20     	; 0x44 <__bad_interrupt>
  30:	09 c0       	rjmp	.+18     	; 0x44 <__bad_interrupt>
  32:	08 c0       	rjmp	.+16     	; 0x44 <__bad_interrupt>

00000034 <__ctors_end>:
  34:	11 24       	eor	r1, r1
  36:	1f be       	out	0x3f, r1	; 63
  38:	cf ef       	ldi	r28, 0xFF	; 255
  3a:	d4 e0       	ldi	r29, 0x04	; 4
  3c:	de bf       	out	0x3e, r29	; 62
  3e:	cd bf       	out	0x3d, r28	; 61
  40:	02 d0       	rcall	.+4      	; 0x46 <main>
  42:	1e c0       	rjmp	.+60     	; 0x80 <_exit>

00000044 <__bad_interrupt>:
  44:	dd cf       	rjmp	.-70     	; 0x0 <__vectors>

00000046 <main>:
  46:	17 b8       	out	0x07, r1	; 7
  48:	18 b8       	out	0x08, r1	; 8
  4a:	8f ef       	ldi	r24, 0xFF	; 255
  4c:	84 b9       	out	0x04, r24	; 4
  4e:	15 b8       	out	0x05, r1	; 5
  50:	20 e0       	ldi	r18, 0x00	; 0
  52:	30 e0       	ldi	r19, 0x00	; 0
  54:	40 e5       	ldi	r20, 0x50	; 80
  56:	53 ec       	ldi	r21, 0xC3	; 195
  58:	6f ef       	ldi	r22, 0xFF	; 255
  5a:	30 9b       	sbis	0x06, 0	; 6
  5c:	0a c0       	rjmp	.+20     	; 0x72 <main+0x2c>
  5e:	80 e0       	ldi	r24, 0x00	; 0
  60:	90 e0       	ldi	r25, 0x00	; 0
  62:	23 2b       	or	r18, r19
  64:	11 f4       	brne	.+4      	; 0x6a <main+0x24>
  66:	81 e0       	ldi	r24, 0x01	; 1
  68:	90 e0       	ldi	r25, 0x00	; 0
  6a:	9c 01       	movw	r18, r24
  6c:	ca 01       	movw	r24, r20
  6e:	01 97       	sbiw	r24, 0x01	; 1
  70:	f1 f7       	brne	.-4      	; 0x6e <main+0x28>
  72:	21 30       	cpi	r18, 0x01	; 1
  74:	31 05       	cpc	r19, r1
  76:	11 f4       	brne	.+4      	; 0x7c <main+0x36>
  78:	65 b9       	out	0x05, r22	; 5
  7a:	ef cf       	rjmp	.-34     	; 0x5a <main+0x14>
  7c:	15 b8       	out	0x05, r1	; 5
  7e:	ed cf       	rjmp	.-38     	; 0x5a <main+0x14>

00000080 <_exit>:
  80:	f8 94       	cli

00000082 <__stop_program>:
  82:	ff cf       	rjmp	.-2      	; 0x82 <__stop_program>
