
week3_1.c.elf:     file format elf32-avr

Sections:
Idx Name          Size      VMA       LMA       File off  Algn
  0 .text         0000009c  00000000  00000000  00000054  2**1
                  CONTENTS, ALLOC, LOAD, READONLY, CODE

Disassembly of section .text:

00000000 <__vectors>:
   0:	19 c0       	rjmp	.+50     	; 0x34 <__ctors_end>
   2:	20 c0       	rjmp	.+64     	; 0x44 <__bad_interrupt>
   4:	1f c0       	rjmp	.+62     	; 0x44 <__bad_interrupt>
   6:	1e c0       	rjmp	.+60     	; 0x44 <__bad_interrupt>
   8:	1d c0       	rjmp	.+58     	; 0x44 <__bad_interrupt>
   a:	1c c0       	rjmp	.+56     	; 0x44 <__bad_interrupt>
   c:	1b c0       	rjmp	.+54     	; 0x44 <__bad_interrupt>
   e:	1a c0       	rjmp	.+52     	; 0x44 <__bad_interrupt>
  10:	19 c0       	rjmp	.+50     	; 0x44 <__bad_interrupt>
  12:	18 c0       	rjmp	.+48     	; 0x44 <__bad_interrupt>
  14:	17 c0       	rjmp	.+46     	; 0x44 <__bad_interrupt>
  16:	16 c0       	rjmp	.+44     	; 0x44 <__bad_interrupt>
  18:	15 c0       	rjmp	.+42     	; 0x44 <__bad_interrupt>
  1a:	14 c0       	rjmp	.+40     	; 0x44 <__bad_interrupt>
  1c:	13 c0       	rjmp	.+38     	; 0x44 <__bad_interrupt>
  1e:	12 c0       	rjmp	.+36     	; 0x44 <__bad_interrupt>
  20:	11 c0       	rjmp	.+34     	; 0x44 <__bad_interrupt>
  22:	10 c0       	rjmp	.+32     	; 0x44 <__bad_interrupt>
  24:	0f c0       	rjmp	.+30     	; 0x44 <__bad_interrupt>
  26:	0e c0       	rjmp	.+28     	; 0x44 <__bad_interrupt>
  28:	0d c0       	rjmp	.+26     	; 0x44 <__bad_interrupt>
  2a:	0c c0       	rjmp	.+24     	; 0x44 <__bad_interrupt>
  2c:	0b c0       	rjmp	.+22     	; 0x44 <__bad_interrupt>
  2e:	0a c0       	rjmp	.+20     	; 0x44 <__bad_interrupt>
  30:	09 c0       	rjmp	.+18     	; 0x44 <__bad_interrupt>
  32:	08 c0       	rjmp	.+16     	; 0x44 <__bad_interrupt>

00000034 <__ctors_end>:
  34:	11 24       	eor	r1, r1
  36:	1f be       	out	0x3f, r1	; 63
  38:	cf ef       	ldi	r28, 0xFF	; 255
  3a:	d4 e0       	ldi	r29, 0x04	; 4
  3c:	de bf       	out	0x3e, r29	; 62
  3e:	cd bf       	out	0x3d, r28	; 61
  40:	02 d0       	rcall	.+4      	; 0x46 <main>
  42:	2a c0       	rjmp	.+84     	; 0x98 <_exit>

00000044 <__bad_interrupt>:
  44:	dd cf       	rjmp	.-70     	; 0x0 <__vectors>

00000046 <main>:
  46:	38 9a       	sbi	0x07, 0	; 7
  48:	50 98       	cbi	0x0a, 0	; 10
  4a:	40 98       	cbi	0x08, 0	; 8
  4c:	60 e0       	ldi	r22, 0x00	; 0
  4e:	70 e0       	ldi	r23, 0x00	; 0
  50:	ab 01       	movw	r20, r22
  52:	48 9b       	sbis	0x09, 0	; 9
  54:	fe cf       	rjmp	.-4      	; 0x52 <main+0xc>
  56:	40 9a       	sbi	0x08, 0	; 8
  58:	88 b1       	in	r24, 0x08	; 8
  5a:	20 e0       	ldi	r18, 0x00	; 0
  5c:	30 e0       	ldi	r19, 0x00	; 0
  5e:	41 30       	cpi	r20, 0x01	; 1
  60:	51 05       	cpc	r21, r1
  62:	11 f4       	brne	.+4      	; 0x68 <main+0x22>
  64:	21 e0       	ldi	r18, 0x01	; 1
  66:	30 e0       	ldi	r19, 0x00	; 0
  68:	90 e0       	ldi	r25, 0x00	; 0
  6a:	28 23       	and	r18, r24
  6c:	39 23       	and	r19, r25
  6e:	23 2b       	or	r18, r19
  70:	11 f0       	breq	.+4      	; 0x76 <main+0x30>
  72:	40 e0       	ldi	r20, 0x00	; 0
  74:	50 e0       	ldi	r21, 0x00	; 0
  76:	40 98       	cbi	0x08, 0	; 8
  78:	88 b1       	in	r24, 0x08	; 8
  7a:	61 e0       	ldi	r22, 0x01	; 1
  7c:	70 e0       	ldi	r23, 0x00	; 0
  7e:	20 e0       	ldi	r18, 0x00	; 0
  80:	30 e0       	ldi	r19, 0x00	; 0
  82:	41 15       	cp	r20, r1
  84:	51 05       	cpc	r21, r1
  86:	11 f4       	brne	.+4      	; 0x8c <main+0x46>
  88:	21 e0       	ldi	r18, 0x01	; 1
  8a:	30 e0       	ldi	r19, 0x00	; 0
  8c:	90 e0       	ldi	r25, 0x00	; 0
  8e:	28 23       	and	r18, r24
  90:	39 23       	and	r19, r25
  92:	23 2b       	or	r18, r19
  94:	e9 f6       	brne	.-70     	; 0x50 <main+0xa>
  96:	dd cf       	rjmp	.-70     	; 0x52 <main+0xc>

00000098 <_exit>:
  98:	f8 94       	cli

0000009a <__stop_program>:
  9a:	ff cf       	rjmp	.-2      	; 0x9a <__stop_program>
