
week2_3-1.elf:     file format elf32-avr

Sections:
Idx Name          Size      VMA       LMA       File off  Algn
  0 .text         00000188  00000000  00000000  00000054  2**1
                  CONTENTS, ALLOC, LOAD, READONLY, CODE

Disassembly of section .text:

00000000 <__vectors>:
   0:	19 c0       	rjmp	.+50     	; 0x34 <__ctors_end>
   2:	20 c0       	rjmp	.+64     	; 0x44 <__bad_interrupt>
   4:	1f c0       	rjmp	.+62     	; 0x44 <__bad_interrupt>
   6:	1e c0       	rjmp	.+60     	; 0x44 <__bad_interrupt>
   8:	1d c0       	rjmp	.+58     	; 0x44 <__bad_interrupt>
   a:	1c c0       	rjmp	.+56     	; 0x44 <__bad_interrupt>
   c:	1b c0       	rjmp	.+54     	; 0x44 <__bad_interrupt>
   e:	1a c0       	rjmp	.+52     	; 0x44 <__bad_interrupt>
  10:	19 c0       	rjmp	.+50     	; 0x44 <__bad_interrupt>
  12:	18 c0       	rjmp	.+48     	; 0x44 <__bad_interrupt>
  14:	17 c0       	rjmp	.+46     	; 0x44 <__bad_interrupt>
  16:	16 c0       	rjmp	.+44     	; 0x44 <__bad_interrupt>
  18:	15 c0       	rjmp	.+42     	; 0x44 <__bad_interrupt>
  1a:	14 c0       	rjmp	.+40     	; 0x44 <__bad_interrupt>
  1c:	13 c0       	rjmp	.+38     	; 0x44 <__bad_interrupt>
  1e:	12 c0       	rjmp	.+36     	; 0x44 <__bad_interrupt>
  20:	11 c0       	rjmp	.+34     	; 0x44 <__bad_interrupt>
  22:	10 c0       	rjmp	.+32     	; 0x44 <__bad_interrupt>
  24:	0f c0       	rjmp	.+30     	; 0x44 <__bad_interrupt>
  26:	0e c0       	rjmp	.+28     	; 0x44 <__bad_interrupt>
  28:	0d c0       	rjmp	.+26     	; 0x44 <__bad_interrupt>
  2a:	0c c0       	rjmp	.+24     	; 0x44 <__bad_interrupt>
  2c:	0b c0       	rjmp	.+22     	; 0x44 <__bad_interrupt>
  2e:	0a c0       	rjmp	.+20     	; 0x44 <__bad_interrupt>
  30:	09 c0       	rjmp	.+18     	; 0x44 <__bad_interrupt>
  32:	08 c0       	rjmp	.+16     	; 0x44 <__bad_interrupt>

00000034 <__ctors_end>:
  34:	11 24       	eor	r1, r1
  36:	1f be       	out	0x3f, r1	; 63
  38:	cf ef       	ldi	r28, 0xFF	; 255
  3a:	d4 e0       	ldi	r29, 0x04	; 4
  3c:	de bf       	out	0x3e, r29	; 62
  3e:	cd bf       	out	0x3d, r28	; 61
  40:	02 d0       	rcall	.+4      	; 0x46 <main>
  42:	a0 c0       	rjmp	.+320    	; 0x184 <_exit>

00000044 <__bad_interrupt>:
  44:	dd cf       	rjmp	.-70     	; 0x0 <__vectors>

00000046 <main>:
  46:	bf 92       	push	r11
  48:	cf 92       	push	r12
  4a:	df 92       	push	r13
  4c:	ef 92       	push	r14
  4e:	ff 92       	push	r15
  50:	0f 93       	push	r16
  52:	1f 93       	push	r17
  54:	df 93       	push	r29
  56:	cf 93       	push	r28
  58:	cd b7       	in	r28, 0x3d	; 61
  5a:	de b7       	in	r29, 0x3e	; 62
  5c:	64 97       	sbiw	r28, 0x14	; 20
  5e:	0f b6       	in	r0, 0x3f	; 63
  60:	f8 94       	cli
  62:	de bf       	out	0x3e, r29	; 62
  64:	0f be       	out	0x3f, r0	; 63
  66:	cd bf       	out	0x3d, r28	; 61
  68:	8f e3       	ldi	r24, 0x3F	; 63
  6a:	90 e0       	ldi	r25, 0x00	; 0
  6c:	9a 83       	std	Y+2, r25	; 0x02
  6e:	89 83       	std	Y+1, r24	; 0x01
  70:	86 e0       	ldi	r24, 0x06	; 6
  72:	90 e0       	ldi	r25, 0x00	; 0
  74:	9c 83       	std	Y+4, r25	; 0x04
  76:	8b 83       	std	Y+3, r24	; 0x03
  78:	8b e5       	ldi	r24, 0x5B	; 91
  7a:	90 e0       	ldi	r25, 0x00	; 0
  7c:	9e 83       	std	Y+6, r25	; 0x06
  7e:	8d 83       	std	Y+5, r24	; 0x05
  80:	8f e4       	ldi	r24, 0x4F	; 79
  82:	90 e0       	ldi	r25, 0x00	; 0
  84:	98 87       	std	Y+8, r25	; 0x08
  86:	8f 83       	std	Y+7, r24	; 0x07
  88:	86 e6       	ldi	r24, 0x66	; 102
  8a:	90 e0       	ldi	r25, 0x00	; 0
  8c:	9a 87       	std	Y+10, r25	; 0x0a
  8e:	89 87       	std	Y+9, r24	; 0x09
  90:	8d e6       	ldi	r24, 0x6D	; 109
  92:	90 e0       	ldi	r25, 0x00	; 0
  94:	9c 87       	std	Y+12, r25	; 0x0c
  96:	8b 87       	std	Y+11, r24	; 0x0b
  98:	8d e7       	ldi	r24, 0x7D	; 125
  9a:	90 e0       	ldi	r25, 0x00	; 0
  9c:	9e 87       	std	Y+14, r25	; 0x0e
  9e:	8d 87       	std	Y+13, r24	; 0x0d
  a0:	87 e0       	ldi	r24, 0x07	; 7
  a2:	90 e0       	ldi	r25, 0x00	; 0
  a4:	98 8b       	std	Y+16, r25	; 0x10
  a6:	8f 87       	std	Y+15, r24	; 0x0f
  a8:	8f e7       	ldi	r24, 0x7F	; 127
  aa:	90 e0       	ldi	r25, 0x00	; 0
  ac:	9a 8b       	std	Y+18, r25	; 0x12
  ae:	89 8b       	std	Y+17, r24	; 0x11
  b0:	8f e6       	ldi	r24, 0x6F	; 111
  b2:	90 e0       	ldi	r25, 0x00	; 0
  b4:	9c 8b       	std	Y+20, r25	; 0x14
  b6:	8b 8b       	std	Y+19, r24	; 0x13
  b8:	8f ef       	ldi	r24, 0xFF	; 255
  ba:	84 b9       	out	0x04, r24	; 4
  bc:	8a b9       	out	0x0a, r24	; 10
  be:	20 e0       	ldi	r18, 0x00	; 0
  c0:	30 e0       	ldi	r19, 0x00	; 0
  c2:	6e 01       	movw	r12, r28
  c4:	08 94       	sec
  c6:	c1 1c       	adc	r12, r1
  c8:	d1 1c       	adc	r13, r1
  ca:	54 ec       	ldi	r21, 0xC4	; 196
  cc:	e5 2e       	mov	r14, r21
  ce:	59 e0       	ldi	r21, 0x09	; 9
  d0:	f5 2e       	mov	r15, r21
  d2:	42 e0       	ldi	r20, 0x02	; 2
  d4:	b4 2e       	mov	r11, r20
  d6:	44 e0       	ldi	r20, 0x04	; 4
  d8:	00 e0       	ldi	r16, 0x00	; 0
  da:	10 e0       	ldi	r17, 0x00	; 0
  dc:	24 36       	cpi	r18, 0x64	; 100
  de:	31 05       	cpc	r19, r1
  e0:	14 f0       	brlt	.+4      	; 0xe6 <main+0xa0>
  e2:	20 e0       	ldi	r18, 0x00	; 0
  e4:	30 e0       	ldi	r19, 0x00	; 0
  e6:	b5 b8       	out	0x05, r11	; 5
  e8:	c9 01       	movw	r24, r18
  ea:	6a e0       	ldi	r22, 0x0A	; 10
  ec:	70 e0       	ldi	r23, 0x00	; 0
  ee:	23 d0       	rcall	.+70     	; 0x136 <__divmodhi4>
  f0:	fc 01       	movw	r30, r24
  f2:	ee 0f       	add	r30, r30
  f4:	ff 1f       	adc	r31, r31
  f6:	ec 0d       	add	r30, r12
  f8:	fd 1d       	adc	r31, r13
  fa:	80 81       	ld	r24, Z
  fc:	80 95       	com	r24
  fe:	8b b9       	out	0x0b, r24	; 11
 100:	c7 01       	movw	r24, r14
 102:	01 97       	sbiw	r24, 0x01	; 1
 104:	f1 f7       	brne	.-4      	; 0x102 <main+0xbc>
 106:	45 b9       	out	0x05, r20	; 5
 108:	c9 01       	movw	r24, r18
 10a:	6a e0       	ldi	r22, 0x0A	; 10
 10c:	70 e0       	ldi	r23, 0x00	; 0
 10e:	13 d0       	rcall	.+38     	; 0x136 <__divmodhi4>
 110:	fb 01       	movw	r30, r22
 112:	ee 0f       	add	r30, r30
 114:	ff 1f       	adc	r31, r31
 116:	ec 0d       	add	r30, r12
 118:	fd 1d       	adc	r31, r13
 11a:	80 81       	ld	r24, Z
 11c:	80 95       	com	r24
 11e:	8b b9       	out	0x0b, r24	; 11
 120:	c7 01       	movw	r24, r14
 122:	01 97       	sbiw	r24, 0x01	; 1
 124:	f1 f7       	brne	.-4      	; 0x122 <main+0xdc>
 126:	0f 5f       	subi	r16, 0xFF	; 255
 128:	1f 4f       	sbci	r17, 0xFF	; 255
 12a:	02 33       	cpi	r16, 0x32	; 50
 12c:	11 05       	cpc	r17, r1
 12e:	b1 f6       	brne	.-84     	; 0xdc <main+0x96>
 130:	2f 5f       	subi	r18, 0xFF	; 255
 132:	3f 4f       	sbci	r19, 0xFF	; 255
 134:	d1 cf       	rjmp	.-94     	; 0xd8 <main+0x92>

00000136 <__divmodhi4>:
 136:	97 fb       	bst	r25, 7
 138:	09 2e       	mov	r0, r25
 13a:	07 26       	eor	r0, r23
 13c:	0a d0       	rcall	.+20     	; 0x152 <__divmodhi4_neg1>
 13e:	77 fd       	sbrc	r23, 7
 140:	04 d0       	rcall	.+8      	; 0x14a <__divmodhi4_neg2>
 142:	0c d0       	rcall	.+24     	; 0x15c <__udivmodhi4>
 144:	06 d0       	rcall	.+12     	; 0x152 <__divmodhi4_neg1>
 146:	00 20       	and	r0, r0
 148:	1a f4       	brpl	.+6      	; 0x150 <__divmodhi4_exit>

0000014a <__divmodhi4_neg2>:
 14a:	70 95       	com	r23
 14c:	61 95       	neg	r22
 14e:	7f 4f       	sbci	r23, 0xFF	; 255

00000150 <__divmodhi4_exit>:
 150:	08 95       	ret

00000152 <__divmodhi4_neg1>:
 152:	f6 f7       	brtc	.-4      	; 0x150 <__divmodhi4_exit>
 154:	90 95       	com	r25
 156:	81 95       	neg	r24
 158:	9f 4f       	sbci	r25, 0xFF	; 255
 15a:	08 95       	ret

0000015c <__udivmodhi4>:
 15c:	aa 1b       	sub	r26, r26
 15e:	bb 1b       	sub	r27, r27
 160:	51 e1       	ldi	r21, 0x11	; 17
 162:	07 c0       	rjmp	.+14     	; 0x172 <__udivmodhi4_ep>

00000164 <__udivmodhi4_loop>:
 164:	aa 1f       	adc	r26, r26
 166:	bb 1f       	adc	r27, r27
 168:	a6 17       	cp	r26, r22
 16a:	b7 07       	cpc	r27, r23
 16c:	10 f0       	brcs	.+4      	; 0x172 <__udivmodhi4_ep>
 16e:	a6 1b       	sub	r26, r22
 170:	b7 0b       	sbc	r27, r23

00000172 <__udivmodhi4_ep>:
 172:	88 1f       	adc	r24, r24
 174:	99 1f       	adc	r25, r25
 176:	5a 95       	dec	r21
 178:	a9 f7       	brne	.-22     	; 0x164 <__udivmodhi4_loop>
 17a:	80 95       	com	r24
 17c:	90 95       	com	r25
 17e:	bc 01       	movw	r22, r24
 180:	cd 01       	movw	r24, r26
 182:	08 95       	ret

00000184 <_exit>:
 184:	f8 94       	cli

00000186 <__stop_program>:
 186:	ff cf       	rjmp	.-2      	; 0x186 <__stop_program>
