
week2_4.elf:     file format elf32-avr

Sections:
Idx Name          Size      VMA       LMA       File off  Algn
  0 .text         000002c0  00000000  00000000  00000054  2**1
                  CONTENTS, ALLOC, LOAD, READONLY, CODE

Disassembly of section .text:

00000000 <__vectors>:
   0:	19 c0       	rjmp	.+50     	; 0x34 <__ctors_end>
   2:	20 c0       	rjmp	.+64     	; 0x44 <__bad_interrupt>
   4:	1f c0       	rjmp	.+62     	; 0x44 <__bad_interrupt>
   6:	1e c0       	rjmp	.+60     	; 0x44 <__bad_interrupt>
   8:	1d c0       	rjmp	.+58     	; 0x44 <__bad_interrupt>
   a:	1c c0       	rjmp	.+56     	; 0x44 <__bad_interrupt>
   c:	1b c0       	rjmp	.+54     	; 0x44 <__bad_interrupt>
   e:	1a c0       	rjmp	.+52     	; 0x44 <__bad_interrupt>
  10:	19 c0       	rjmp	.+50     	; 0x44 <__bad_interrupt>
  12:	18 c0       	rjmp	.+48     	; 0x44 <__bad_interrupt>
  14:	17 c0       	rjmp	.+46     	; 0x44 <__bad_interrupt>
  16:	16 c0       	rjmp	.+44     	; 0x44 <__bad_interrupt>
  18:	15 c0       	rjmp	.+42     	; 0x44 <__bad_interrupt>
  1a:	14 c0       	rjmp	.+40     	; 0x44 <__bad_interrupt>
  1c:	13 c0       	rjmp	.+38     	; 0x44 <__bad_interrupt>
  1e:	12 c0       	rjmp	.+36     	; 0x44 <__bad_interrupt>
  20:	11 c0       	rjmp	.+34     	; 0x44 <__bad_interrupt>
  22:	10 c0       	rjmp	.+32     	; 0x44 <__bad_interrupt>
  24:	0f c0       	rjmp	.+30     	; 0x44 <__bad_interrupt>
  26:	0e c0       	rjmp	.+28     	; 0x44 <__bad_interrupt>
  28:	0d c0       	rjmp	.+26     	; 0x44 <__bad_interrupt>
  2a:	0c c0       	rjmp	.+24     	; 0x44 <__bad_interrupt>
  2c:	0b c0       	rjmp	.+22     	; 0x44 <__bad_interrupt>
  2e:	0a c0       	rjmp	.+20     	; 0x44 <__bad_interrupt>
  30:	09 c0       	rjmp	.+18     	; 0x44 <__bad_interrupt>
  32:	08 c0       	rjmp	.+16     	; 0x44 <__bad_interrupt>

00000034 <__ctors_end>:
  34:	11 24       	eor	r1, r1
  36:	1f be       	out	0x3f, r1	; 63
  38:	cf ef       	ldi	r28, 0xFF	; 255
  3a:	d4 e0       	ldi	r29, 0x04	; 4
  3c:	de bf       	out	0x3e, r29	; 62
  3e:	cd bf       	out	0x3d, r28	; 61
  40:	8f d0       	rcall	.+286    	; 0x160 <main>
  42:	3c c1       	rjmp	.+632    	; 0x2bc <_exit>

00000044 <__bad_interrupt>:
  44:	dd cf       	rjmp	.-70     	; 0x0 <__vectors>

00000046 <downBlauw.1428>:
  46:	2f 92       	push	r2
  48:	3f 92       	push	r3
  4a:	f1 01       	movw	r30, r2
  4c:	81 81       	ldd	r24, Z+1	; 0x01
  4e:	8f 3f       	cpi	r24, 0xFF	; 255
  50:	11 f4       	brne	.+4      	; 0x56 <downBlauw.1428+0x10>
  52:	10 82       	st	Z, r1
  54:	02 c0       	rjmp	.+4      	; 0x5a <downBlauw.1428+0x14>
  56:	81 e0       	ldi	r24, 0x01	; 1
  58:	80 83       	st	Z, r24
  5a:	40 e0       	ldi	r20, 0x00	; 0
  5c:	50 e0       	ldi	r21, 0x00	; 0
  5e:	a5 e3       	ldi	r26, 0x35	; 53
  60:	80 81       	ld	r24, Z
  62:	91 81       	ldd	r25, Z+1	; 0x01
  64:	89 0f       	add	r24, r25
  66:	81 83       	std	Z+1, r24	; 0x01
  68:	20 e0       	ldi	r18, 0x00	; 0
  6a:	30 e0       	ldi	r19, 0x00	; 0
  6c:	68 2f       	mov	r22, r24
  6e:	70 e0       	ldi	r23, 0x00	; 0
  70:	26 17       	cp	r18, r22
  72:	37 07       	cpc	r19, r23
  74:	14 f4       	brge	.+4      	; 0x7a <downBlauw.1428+0x34>
  76:	2b 9a       	sbi	0x05, 3	; 5
  78:	05 c0       	rjmp	.+10     	; 0x84 <downBlauw.1428+0x3e>
  7a:	85 b1       	in	r24, 0x05	; 5
  7c:	95 b1       	in	r25, 0x05	; 5
  7e:	89 23       	and	r24, r25
  80:	87 7f       	andi	r24, 0xF7	; 247
  82:	85 b9       	out	0x05, r24	; 5
  84:	8a 2f       	mov	r24, r26
  86:	8a 95       	dec	r24
  88:	f1 f7       	brne	.-4      	; 0x86 <downBlauw.1428+0x40>
  8a:	2f 5f       	subi	r18, 0xFF	; 255
  8c:	3f 4f       	sbci	r19, 0xFF	; 255
  8e:	2f 3f       	cpi	r18, 0xFF	; 255
  90:	31 05       	cpc	r19, r1
  92:	71 f7       	brne	.-36     	; 0x70 <downBlauw.1428+0x2a>
  94:	4f 5f       	subi	r20, 0xFF	; 255
  96:	5f 4f       	sbci	r21, 0xFF	; 255
  98:	4f 3f       	cpi	r20, 0xFF	; 255
  9a:	51 05       	cpc	r21, r1
  9c:	09 f7       	brne	.-62     	; 0x60 <downBlauw.1428+0x1a>
  9e:	3f 90       	pop	r3
  a0:	2f 90       	pop	r2
  a2:	08 95       	ret

000000a4 <upGroen.1448>:
  a4:	2f 92       	push	r2
  a6:	3f 92       	push	r3
  a8:	f1 01       	movw	r30, r2
  aa:	83 81       	ldd	r24, Z+3	; 0x03
  ac:	88 23       	and	r24, r24
  ae:	11 f4       	brne	.+4      	; 0xb4 <upGroen.1448+0x10>
  b0:	12 82       	std	Z+2, r1	; 0x02
  b2:	02 c0       	rjmp	.+4      	; 0xb8 <upGroen.1448+0x14>
  b4:	8f ef       	ldi	r24, 0xFF	; 255
  b6:	82 83       	std	Z+2, r24	; 0x02
  b8:	40 e0       	ldi	r20, 0x00	; 0
  ba:	50 e0       	ldi	r21, 0x00	; 0
  bc:	a5 e3       	ldi	r26, 0x35	; 53
  be:	82 81       	ldd	r24, Z+2	; 0x02
  c0:	93 81       	ldd	r25, Z+3	; 0x03
  c2:	89 0f       	add	r24, r25
  c4:	83 83       	std	Z+3, r24	; 0x03
  c6:	20 e0       	ldi	r18, 0x00	; 0
  c8:	30 e0       	ldi	r19, 0x00	; 0
  ca:	68 2f       	mov	r22, r24
  cc:	70 e0       	ldi	r23, 0x00	; 0
  ce:	26 17       	cp	r18, r22
  d0:	37 07       	cpc	r19, r23
  d2:	14 f4       	brge	.+4      	; 0xd8 <upGroen.1448+0x34>
  d4:	2a 9a       	sbi	0x05, 2	; 5
  d6:	05 c0       	rjmp	.+10     	; 0xe2 <upGroen.1448+0x3e>
  d8:	85 b1       	in	r24, 0x05	; 5
  da:	95 b1       	in	r25, 0x05	; 5
  dc:	89 23       	and	r24, r25
  de:	8b 7f       	andi	r24, 0xFB	; 251
  e0:	85 b9       	out	0x05, r24	; 5
  e2:	8a 2f       	mov	r24, r26
  e4:	8a 95       	dec	r24
  e6:	f1 f7       	brne	.-4      	; 0xe4 <upGroen.1448+0x40>
  e8:	2f 5f       	subi	r18, 0xFF	; 255
  ea:	3f 4f       	sbci	r19, 0xFF	; 255
  ec:	2f 3f       	cpi	r18, 0xFF	; 255
  ee:	31 05       	cpc	r19, r1
  f0:	71 f7       	brne	.-36     	; 0xce <upGroen.1448+0x2a>
  f2:	4f 5f       	subi	r20, 0xFF	; 255
  f4:	5f 4f       	sbci	r21, 0xFF	; 255
  f6:	4f 3f       	cpi	r20, 0xFF	; 255
  f8:	51 05       	cpc	r21, r1
  fa:	09 f7       	brne	.-62     	; 0xbe <upGroen.1448+0x1a>
  fc:	3f 90       	pop	r3
  fe:	2f 90       	pop	r2
 100:	08 95       	ret

00000102 <upBlauw.1458>:
 102:	2f 92       	push	r2
 104:	3f 92       	push	r3
 106:	f1 01       	movw	r30, r2
 108:	81 81       	ldd	r24, Z+1	; 0x01
 10a:	88 23       	and	r24, r24
 10c:	11 f4       	brne	.+4      	; 0x112 <upBlauw.1458+0x10>
 10e:	10 82       	st	Z, r1
 110:	02 c0       	rjmp	.+4      	; 0x116 <upBlauw.1458+0x14>
 112:	8f ef       	ldi	r24, 0xFF	; 255
 114:	80 83       	st	Z, r24
 116:	40 e0       	ldi	r20, 0x00	; 0
 118:	50 e0       	ldi	r21, 0x00	; 0
 11a:	a5 e3       	ldi	r26, 0x35	; 53
 11c:	80 81       	ld	r24, Z
 11e:	91 81       	ldd	r25, Z+1	; 0x01
 120:	89 0f       	add	r24, r25
 122:	81 83       	std	Z+1, r24	; 0x01
 124:	20 e0       	ldi	r18, 0x00	; 0
 126:	30 e0       	ldi	r19, 0x00	; 0
 128:	68 2f       	mov	r22, r24
 12a:	70 e0       	ldi	r23, 0x00	; 0
 12c:	26 17       	cp	r18, r22
 12e:	37 07       	cpc	r19, r23
 130:	14 f4       	brge	.+4      	; 0x136 <upBlauw.1458+0x34>
 132:	2b 9a       	sbi	0x05, 3	; 5
 134:	05 c0       	rjmp	.+10     	; 0x140 <upBlauw.1458+0x3e>
 136:	85 b1       	in	r24, 0x05	; 5
 138:	95 b1       	in	r25, 0x05	; 5
 13a:	89 23       	and	r24, r25
 13c:	87 7f       	andi	r24, 0xF7	; 247
 13e:	85 b9       	out	0x05, r24	; 5
 140:	8a 2f       	mov	r24, r26
 142:	8a 95       	dec	r24
 144:	f1 f7       	brne	.-4      	; 0x142 <upBlauw.1458+0x40>
 146:	2f 5f       	subi	r18, 0xFF	; 255
 148:	3f 4f       	sbci	r19, 0xFF	; 255
 14a:	2f 3f       	cpi	r18, 0xFF	; 255
 14c:	31 05       	cpc	r19, r1
 14e:	71 f7       	brne	.-36     	; 0x12c <upBlauw.1458+0x2a>
 150:	4f 5f       	subi	r20, 0xFF	; 255
 152:	5f 4f       	sbci	r21, 0xFF	; 255
 154:	4f 3f       	cpi	r20, 0xFF	; 255
 156:	51 05       	cpc	r21, r1
 158:	09 f7       	brne	.-62     	; 0x11c <upBlauw.1458+0x1a>
 15a:	3f 90       	pop	r3
 15c:	2f 90       	pop	r2
 15e:	08 95       	ret

00000160 <main>:
 160:	2f 92       	push	r2
 162:	3f 92       	push	r3
 164:	df 92       	push	r13
 166:	ef 92       	push	r14
 168:	ff 92       	push	r15
 16a:	0f 93       	push	r16
 16c:	1f 93       	push	r17
 16e:	df 93       	push	r29
 170:	cf 93       	push	r28
 172:	00 d0       	rcall	.+0      	; 0x174 <main+0x14>
 174:	00 d0       	rcall	.+0      	; 0x176 <main+0x16>
 176:	00 d0       	rcall	.+0      	; 0x178 <main+0x18>
 178:	cd b7       	in	r28, 0x3d	; 61
 17a:	de b7       	in	r29, 0x3e	; 62
 17c:	1e 82       	std	Y+6, r1	; 0x06
 17e:	1a 82       	std	Y+2, r1	; 0x02
 180:	1c 82       	std	Y+4, r1	; 0x04
 182:	81 e0       	ldi	r24, 0x01	; 1
 184:	89 83       	std	Y+1, r24	; 0x01
 186:	8b 83       	std	Y+3, r24	; 0x03
 188:	8f ef       	ldi	r24, 0xFF	; 255
 18a:	84 b9       	out	0x04, r24	; 4
 18c:	85 b9       	out	0x05, r24	; 5
 18e:	dd 24       	eor	r13, r13
 190:	da 94       	dec	r13
 192:	85 e3       	ldi	r24, 0x35	; 53
 194:	f8 2e       	mov	r15, r24
 196:	8e 01       	movw	r16, r28
 198:	0f 5f       	subi	r16, 0xFF	; 255
 19a:	1f 4f       	sbci	r17, 0xFF	; 255
 19c:	ee 24       	eor	r14, r14
 19e:	e3 94       	inc	r14
 1a0:	8e 81       	ldd	r24, Y+6	; 0x06
 1a2:	88 23       	and	r24, r24
 1a4:	41 f4       	brne	.+16     	; 0x1b6 <main+0x56>
 1a6:	1d 82       	std	Y+5, r1	; 0x05
 1a8:	6d 81       	ldd	r22, Y+5	; 0x05
 1aa:	76 2f       	mov	r23, r22
 1ac:	78 0f       	add	r23, r24
 1ae:	e7 2f       	mov	r30, r23
 1b0:	40 e0       	ldi	r20, 0x00	; 0
 1b2:	50 e0       	ldi	r21, 0x00	; 0
 1b4:	02 c0       	rjmp	.+4      	; 0x1ba <main+0x5a>
 1b6:	dd 82       	std	Y+5, r13	; 0x05
 1b8:	f7 cf       	rjmp	.-18     	; 0x1a8 <main+0x48>
 1ba:	20 e0       	ldi	r18, 0x00	; 0
 1bc:	30 e0       	ldi	r19, 0x00	; 0
 1be:	ae 2f       	mov	r26, r30
 1c0:	b0 e0       	ldi	r27, 0x00	; 0
 1c2:	2a 17       	cp	r18, r26
 1c4:	3b 07       	cpc	r19, r27
 1c6:	14 f4       	brge	.+4      	; 0x1cc <main+0x6c>
 1c8:	29 9a       	sbi	0x05, 1	; 5
 1ca:	05 c0       	rjmp	.+10     	; 0x1d6 <main+0x76>
 1cc:	85 b1       	in	r24, 0x05	; 5
 1ce:	95 b1       	in	r25, 0x05	; 5
 1d0:	89 23       	and	r24, r25
 1d2:	8d 7f       	andi	r24, 0xFD	; 253
 1d4:	85 b9       	out	0x05, r24	; 5
 1d6:	8f 2d       	mov	r24, r15
 1d8:	8a 95       	dec	r24
 1da:	f1 f7       	brne	.-4      	; 0x1d8 <main+0x78>
 1dc:	2f 5f       	subi	r18, 0xFF	; 255
 1de:	3f 4f       	sbci	r19, 0xFF	; 255
 1e0:	2f 3f       	cpi	r18, 0xFF	; 255
 1e2:	31 05       	cpc	r19, r1
 1e4:	71 f7       	brne	.-36     	; 0x1c2 <main+0x62>
 1e6:	4f 5f       	subi	r20, 0xFF	; 255
 1e8:	5f 4f       	sbci	r21, 0xFF	; 255
 1ea:	e6 0f       	add	r30, r22
 1ec:	4f 3f       	cpi	r20, 0xFF	; 255
 1ee:	51 05       	cpc	r21, r1
 1f0:	21 f7       	brne	.-56     	; 0x1ba <main+0x5a>
 1f2:	66 0f       	add	r22, r22
 1f4:	76 1b       	sub	r23, r22
 1f6:	7e 83       	std	Y+6, r23	; 0x06
 1f8:	18 01       	movw	r2, r16
 1fa:	83 df       	rcall	.-250    	; 0x102 <upBlauw.1458>
 1fc:	53 df       	rcall	.-346    	; 0xa4 <upGroen.1448>
 1fe:	23 df       	rcall	.-442    	; 0x46 <downBlauw.1428>
 200:	8c 81       	ldd	r24, Y+4	; 0x04
 202:	8f 3f       	cpi	r24, 0xFF	; 255
 204:	41 f4       	brne	.+16     	; 0x216 <main+0xb6>
 206:	1b 82       	std	Y+3, r1	; 0x03
 208:	6b 81       	ldd	r22, Y+3	; 0x03
 20a:	76 2f       	mov	r23, r22
 20c:	78 0f       	add	r23, r24
 20e:	e7 2f       	mov	r30, r23
 210:	40 e0       	ldi	r20, 0x00	; 0
 212:	50 e0       	ldi	r21, 0x00	; 0
 214:	02 c0       	rjmp	.+4      	; 0x21a <main+0xba>
 216:	eb 82       	std	Y+3, r14	; 0x03
 218:	f7 cf       	rjmp	.-18     	; 0x208 <main+0xa8>
 21a:	20 e0       	ldi	r18, 0x00	; 0
 21c:	30 e0       	ldi	r19, 0x00	; 0
 21e:	ae 2f       	mov	r26, r30
 220:	b0 e0       	ldi	r27, 0x00	; 0
 222:	2a 17       	cp	r18, r26
 224:	3b 07       	cpc	r19, r27
 226:	14 f4       	brge	.+4      	; 0x22c <main+0xcc>
 228:	2a 9a       	sbi	0x05, 2	; 5
 22a:	05 c0       	rjmp	.+10     	; 0x236 <main+0xd6>
 22c:	85 b1       	in	r24, 0x05	; 5
 22e:	95 b1       	in	r25, 0x05	; 5
 230:	89 23       	and	r24, r25
 232:	8b 7f       	andi	r24, 0xFB	; 251
 234:	85 b9       	out	0x05, r24	; 5
 236:	8f 2d       	mov	r24, r15
 238:	8a 95       	dec	r24
 23a:	f1 f7       	brne	.-4      	; 0x238 <main+0xd8>
 23c:	2f 5f       	subi	r18, 0xFF	; 255
 23e:	3f 4f       	sbci	r19, 0xFF	; 255
 240:	2f 3f       	cpi	r18, 0xFF	; 255
 242:	31 05       	cpc	r19, r1
 244:	71 f7       	brne	.-36     	; 0x222 <main+0xc2>
 246:	4f 5f       	subi	r20, 0xFF	; 255
 248:	5f 4f       	sbci	r21, 0xFF	; 255
 24a:	e6 0f       	add	r30, r22
 24c:	4f 3f       	cpi	r20, 0xFF	; 255
 24e:	51 05       	cpc	r21, r1
 250:	21 f7       	brne	.-56     	; 0x21a <main+0xba>
 252:	66 0f       	add	r22, r22
 254:	76 1b       	sub	r23, r22
 256:	7c 83       	std	Y+4, r23	; 0x04
 258:	18 01       	movw	r2, r16
 25a:	53 df       	rcall	.-346    	; 0x102 <upBlauw.1458>
 25c:	8e 81       	ldd	r24, Y+6	; 0x06
 25e:	8f 3f       	cpi	r24, 0xFF	; 255
 260:	41 f4       	brne	.+16     	; 0x272 <main+0x112>
 262:	1d 82       	std	Y+5, r1	; 0x05
 264:	6d 81       	ldd	r22, Y+5	; 0x05
 266:	76 2f       	mov	r23, r22
 268:	78 0f       	add	r23, r24
 26a:	e7 2f       	mov	r30, r23
 26c:	40 e0       	ldi	r20, 0x00	; 0
 26e:	50 e0       	ldi	r21, 0x00	; 0
 270:	02 c0       	rjmp	.+4      	; 0x276 <main+0x116>
 272:	ed 82       	std	Y+5, r14	; 0x05
 274:	f7 cf       	rjmp	.-18     	; 0x264 <main+0x104>
 276:	20 e0       	ldi	r18, 0x00	; 0
 278:	30 e0       	ldi	r19, 0x00	; 0
 27a:	ae 2f       	mov	r26, r30
 27c:	b0 e0       	ldi	r27, 0x00	; 0
 27e:	2a 17       	cp	r18, r26
 280:	3b 07       	cpc	r19, r27
 282:	14 f4       	brge	.+4      	; 0x288 <main+0x128>
 284:	29 9a       	sbi	0x05, 1	; 5
 286:	05 c0       	rjmp	.+10     	; 0x292 <main+0x132>
 288:	85 b1       	in	r24, 0x05	; 5
 28a:	95 b1       	in	r25, 0x05	; 5
 28c:	89 23       	and	r24, r25
 28e:	8d 7f       	andi	r24, 0xFD	; 253
 290:	85 b9       	out	0x05, r24	; 5
 292:	8f 2d       	mov	r24, r15
 294:	8a 95       	dec	r24
 296:	f1 f7       	brne	.-4      	; 0x294 <main+0x134>
 298:	2f 5f       	subi	r18, 0xFF	; 255
 29a:	3f 4f       	sbci	r19, 0xFF	; 255
 29c:	2f 3f       	cpi	r18, 0xFF	; 255
 29e:	31 05       	cpc	r19, r1
 2a0:	71 f7       	brne	.-36     	; 0x27e <main+0x11e>
 2a2:	4f 5f       	subi	r20, 0xFF	; 255
 2a4:	5f 4f       	sbci	r21, 0xFF	; 255
 2a6:	e6 0f       	add	r30, r22
 2a8:	4f 3f       	cpi	r20, 0xFF	; 255
 2aa:	51 05       	cpc	r21, r1
 2ac:	21 f7       	brne	.-56     	; 0x276 <main+0x116>
 2ae:	66 0f       	add	r22, r22
 2b0:	76 1b       	sub	r23, r22
 2b2:	7e 83       	std	Y+6, r23	; 0x06
 2b4:	18 01       	movw	r2, r16
 2b6:	f6 de       	rcall	.-532    	; 0xa4 <upGroen.1448>
 2b8:	c6 de       	rcall	.-628    	; 0x46 <downBlauw.1428>
 2ba:	72 cf       	rjmp	.-284    	; 0x1a0 <main+0x40>

000002bc <_exit>:
 2bc:	f8 94       	cli

000002be <__stop_program>:
 2be:	ff cf       	rjmp	.-2      	; 0x2be <__stop_program>
