
week4_1.elf:     file format elf32-avr

Sections:
Idx Name          Size      VMA       LMA       File off  Algn
  0 .text         000000c8  00000000  00000000  00000054  2**1
                  CONTENTS, ALLOC, LOAD, READONLY, CODE

Disassembly of section .text:

00000000 <__vectors>:
   0:	19 c0       	rjmp	.+50     	; 0x34 <__ctors_end>
   2:	20 c0       	rjmp	.+64     	; 0x44 <__bad_interrupt>
   4:	1f c0       	rjmp	.+62     	; 0x44 <__bad_interrupt>
   6:	1e c0       	rjmp	.+60     	; 0x44 <__bad_interrupt>
   8:	1d c0       	rjmp	.+58     	; 0x44 <__bad_interrupt>
   a:	1c c0       	rjmp	.+56     	; 0x44 <__bad_interrupt>
   c:	1b c0       	rjmp	.+54     	; 0x44 <__bad_interrupt>
   e:	1a c0       	rjmp	.+52     	; 0x44 <__bad_interrupt>
  10:	19 c0       	rjmp	.+50     	; 0x44 <__bad_interrupt>
  12:	18 c0       	rjmp	.+48     	; 0x44 <__bad_interrupt>
  14:	17 c0       	rjmp	.+46     	; 0x44 <__bad_interrupt>
  16:	16 c0       	rjmp	.+44     	; 0x44 <__bad_interrupt>
  18:	15 c0       	rjmp	.+42     	; 0x44 <__bad_interrupt>
  1a:	14 c0       	rjmp	.+40     	; 0x44 <__bad_interrupt>
  1c:	13 c0       	rjmp	.+38     	; 0x44 <__bad_interrupt>
  1e:	12 c0       	rjmp	.+36     	; 0x44 <__bad_interrupt>
  20:	11 c0       	rjmp	.+34     	; 0x44 <__bad_interrupt>
  22:	10 c0       	rjmp	.+32     	; 0x44 <__bad_interrupt>
  24:	0f c0       	rjmp	.+30     	; 0x44 <__bad_interrupt>
  26:	0e c0       	rjmp	.+28     	; 0x44 <__bad_interrupt>
  28:	0d c0       	rjmp	.+26     	; 0x44 <__bad_interrupt>
  2a:	0c c0       	rjmp	.+24     	; 0x44 <__bad_interrupt>
  2c:	0b c0       	rjmp	.+22     	; 0x44 <__bad_interrupt>
  2e:	0a c0       	rjmp	.+20     	; 0x44 <__bad_interrupt>
  30:	09 c0       	rjmp	.+18     	; 0x44 <__bad_interrupt>
  32:	08 c0       	rjmp	.+16     	; 0x44 <__bad_interrupt>

00000034 <__ctors_end>:
  34:	11 24       	eor	r1, r1
  36:	1f be       	out	0x3f, r1	; 63
  38:	cf ef       	ldi	r28, 0xFF	; 255
  3a:	d4 e0       	ldi	r29, 0x04	; 4
  3c:	de bf       	out	0x3e, r29	; 62
  3e:	cd bf       	out	0x3d, r28	; 61
  40:	22 d0       	rcall	.+68     	; 0x86 <main>
  42:	40 c0       	rjmp	.+128    	; 0xc4 <_exit>

00000044 <__bad_interrupt>:
  44:	dd cf       	rjmp	.-70     	; 0x0 <__vectors>

00000046 <pwm.1250>:
  46:	2f 92       	push	r2
  48:	3f 92       	push	r3
  4a:	f1 01       	movw	r30, r2
  4c:	21 e0       	ldi	r18, 0x01	; 1
  4e:	30 e0       	ldi	r19, 0x00	; 0
  50:	02 c0       	rjmp	.+4      	; 0x56 <pwm.1250+0x10>
  52:	22 0f       	add	r18, r18
  54:	33 1f       	adc	r19, r19
  56:	8a 95       	dec	r24
  58:	e2 f7       	brpl	.-8      	; 0x52 <pwm.1250+0xc>
  5a:	32 2f       	mov	r19, r18
  5c:	30 95       	com	r19
  5e:	40 e0       	ldi	r20, 0x00	; 0
  60:	0c c0       	rjmp	.+24     	; 0x7a <pwm.1250+0x34>
  62:	84 2f       	mov	r24, r20
  64:	90 e0       	ldi	r25, 0x00	; 0
  66:	86 17       	cp	r24, r22
  68:	97 07       	cpc	r25, r23
  6a:	1c f4       	brge	.+6      	; 0x72 <pwm.1250+0x2c>
  6c:	85 b1       	in	r24, 0x05	; 5
  6e:	83 23       	and	r24, r19
  70:	02 c0       	rjmp	.+4      	; 0x76 <pwm.1250+0x30>
  72:	85 b1       	in	r24, 0x05	; 5
  74:	82 2b       	or	r24, r18
  76:	85 b9       	out	0x05, r24	; 5
  78:	4f 5f       	subi	r20, 0xFF	; 255
  7a:	4f 3f       	cpi	r20, 0xFF	; 255
  7c:	91 f7       	brne	.-28     	; 0x62 <pwm.1250+0x1c>
  7e:	40 83       	st	Z, r20
  80:	3f 90       	pop	r3
  82:	2f 90       	pop	r2
  84:	08 95       	ret

00000086 <main>:
  86:	2f 92       	push	r2
  88:	3f 92       	push	r3
  8a:	0f 93       	push	r16
  8c:	1f 93       	push	r17
  8e:	df 93       	push	r29
  90:	cf 93       	push	r28
  92:	0f 92       	push	r0
  94:	cd b7       	in	r28, 0x3d	; 61
  96:	de b7       	in	r29, 0x3e	; 62
  98:	8f ef       	ldi	r24, 0xFF	; 255
  9a:	84 b9       	out	0x04, r24	; 4
  9c:	8e 01       	movw	r16, r28
  9e:	0f 5f       	subi	r16, 0xFF	; 255
  a0:	1f 4f       	sbci	r17, 0xFF	; 255
  a2:	18 01       	movw	r2, r16
  a4:	81 e0       	ldi	r24, 0x01	; 1
  a6:	90 e0       	ldi	r25, 0x00	; 0
  a8:	66 e9       	ldi	r22, 0x96	; 150
  aa:	70 e0       	ldi	r23, 0x00	; 0
  ac:	cc df       	rcall	.-104    	; 0x46 <pwm.1250>
  ae:	83 e0       	ldi	r24, 0x03	; 3
  b0:	90 e0       	ldi	r25, 0x00	; 0
  b2:	66 e9       	ldi	r22, 0x96	; 150
  b4:	70 e0       	ldi	r23, 0x00	; 0
  b6:	c7 df       	rcall	.-114    	; 0x46 <pwm.1250>
  b8:	82 e0       	ldi	r24, 0x02	; 2
  ba:	90 e0       	ldi	r25, 0x00	; 0
  bc:	6f ef       	ldi	r22, 0xFF	; 255
  be:	70 e0       	ldi	r23, 0x00	; 0
  c0:	c2 df       	rcall	.-124    	; 0x46 <pwm.1250>
  c2:	ef cf       	rjmp	.-34     	; 0xa2 <main+0x1c>

000000c4 <_exit>:
  c4:	f8 94       	cli

000000c6 <__stop_program>:
  c6:	ff cf       	rjmp	.-2      	; 0xc6 <__stop_program>
